target datalayout = "e-m:e-p270:32:32-p271:32:32-p272:64:64-i64:64-i128:128-f80:128-n8:16:32:64-S128"
target triple = "x86_64-pc-linux-gnu"

%"struct.grpc_core::CallTracerInterface::TransportByteSize" = type { i64, i64, i64 }
%"struct.grpc_core::HPackCompressor::EncodeHeaderOptions" = type { i32, i8, i8, i64, ptr }
%"class.grpc_core::SliceBuffer" = type { %struct.grpc_slice_buffer }
%struct.grpc_slice_buffer = type { ptr, ptr, i64, i64, i64, [6 x %struct.grpc_slice] }
%struct.grpc_slice = type { ptr, %"union.grpc_slice::grpc_slice_data" }
%"union.grpc_slice::grpc_slice_data" = type { %"struct.grpc_slice::grpc_slice_data::grpc_slice_refcounted", [8 x i8] }
%"struct.grpc_slice::grpc_slice_data::grpc_slice_refcounted" = type { i64, ptr }
%"class.absl::lts_20240722::log_internal::NullStream" = type { i8 }

; Function Attrs: mustprogress nounwind uwtable
define linkonce_odr noundef nonnull align 1 dereferenceable(1) ptr @_ZN4absl12lts_2024072212log_internal10NullStream14InternalStreamEv(ptr noundef nonnull align 1 dereferenceable(1) %0) #6 comdat align 2 {
  %2 = alloca ptr, align 8
  store ptr %0, ptr %2, align 8, !tbaa !228
  %3 = load ptr, ptr %2, align 8
  ret ptr %3
}

; Function Attrs: mustprogress nounwind uwtable
define linkonce_odr noundef ptr @_ZN9grpc_core11SliceBuffer14c_slice_bufferEv(ptr noundef nonnull align 8 dereferenceable(232) %0) #6 comdat align 2 {
  %2 = alloca ptr, align 8
  store ptr %0, ptr %2, align 8, !tbaa !10
  %3 = load ptr, ptr %2, align 8
  %4 = getelementptr inbounds nuw %"class.grpc_core::SliceBuffer", ptr %3, i32 0, i32 0
  ret ptr %4
}

; Function Attrs: mustprogress uwtable
define internal void @_ZN9grpc_coreL10FillHeaderEPhhjmh(ptr noundef %0, i8 noundef zeroext %1, i32 noundef %2, i64 noundef %3, i8 noundef zeroext %4) #4 {
  %6 = alloca ptr, align 8
  %7 = alloca i8, align 1
  %8 = alloca i32, align 4
  %9 = alloca i64, align 8
  %10 = alloca i8, align 1
  %11 = alloca %"class.absl::lts_20240722::log_internal::NullStream", align 1
  store ptr %0, ptr %6, align 8, !tbaa !39
  store i8 %1, ptr %7, align 1, !tbaa !14
  store i32 %2, ptr %8, align 4, !tbaa !41
  store i64 %3, ptr %9, align 8, !tbaa !30
  store i8 %4, ptr %10, align 1, !tbaa !14
  br label %12

12:                                               ; preds = %13, %5
  br i1 false, label %13, label %15

13:                                               ; preds = %12
  call void @llvm.lifetime.start.p0(i64 1, ptr %11) #3
  %14 = call noundef nonnull align 1 dereferenceable(1) ptr @_ZN4absl12lts_2024072212log_internal10NullStream14InternalStreamEv(ptr noundef nonnull align 1 dereferenceable(1) %11)
  call void @llvm.lifetime.end.p0(i64 1, ptr %11) #3
  br label %12, !llvm.loop !42

15:                                               ; preds = %12
  %16 = load i64, ptr %9, align 8, !tbaa !30
  %17 = lshr i64 %16, 16
  %18 = trunc i64 %17 to i8
  %19 = load ptr, ptr %6, align 8, !tbaa !39
  %20 = getelementptr inbounds nuw i8, ptr %19, i32 1
  store ptr %20, ptr %6, align 8, !tbaa !39
  store i8 %18, ptr %19, align 1, !tbaa !14
  %21 = load i64, ptr %9, align 8, !tbaa !30
  %22 = lshr i64 %21, 8
  %23 = trunc i64 %22 to i8
  %24 = load ptr, ptr %6, align 8, !tbaa !39
  %25 = getelementptr inbounds nuw i8, ptr %24, i32 1
  store ptr %25, ptr %6, align 8, !tbaa !39
  store i8 %23, ptr %24, align 1, !tbaa !14
  %26 = load i64, ptr %9, align 8, !tbaa !30
  %27 = trunc i64 %26 to i8
  %28 = load ptr, ptr %6, align 8, !tbaa !39
  %29 = getelementptr inbounds nuw i8, ptr %28, i32 1
  store ptr %29, ptr %6, align 8, !tbaa !39
  store i8 %27, ptr %28, align 1, !tbaa !14
  %30 = load i8, ptr %7, align 1, !tbaa !14
  %31 = load ptr, ptr %6, align 8, !tbaa !39
  %32 = getelementptr inbounds nuw i8, ptr %31, i32 1
  store ptr %32, ptr %6, align 8, !tbaa !39
  store i8 %30, ptr %31, align 1, !tbaa !14
  %33 = load i8, ptr %10, align 1, !tbaa !14
  %34 = load ptr, ptr %6, align 8, !tbaa !39
  %35 = getelementptr inbounds nuw i8, ptr %34, i32 1
  store ptr %35, ptr %6, align 8, !tbaa !39
  store i8 %33, ptr %34, align 1, !tbaa !14
  %36 = load i32, ptr %8, align 4, !tbaa !41
  %37 = lshr i32 %36, 24
  %38 = trunc i32 %37 to i8
  %39 = load ptr, ptr %6, align 8, !tbaa !39
  %40 = getelementptr inbounds nuw i8, ptr %39, i32 1
  store ptr %40, ptr %6, align 8, !tbaa !39
  store i8 %38, ptr %39, align 1, !tbaa !14
  %41 = load i32, ptr %8, align 4, !tbaa !41
  %42 = lshr i32 %41, 16
  %43 = trunc i32 %42 to i8
  %44 = load ptr, ptr %6, align 8, !tbaa !39
  %45 = getelementptr inbounds nuw i8, ptr %44, i32 1
  store ptr %45, ptr %6, align 8, !tbaa !39
  store i8 %43, ptr %44, align 1, !tbaa !14
  %46 = load i32, ptr %8, align 4, !tbaa !41
  %47 = lshr i32 %46, 8
  %48 = trunc i32 %47 to i8
  %49 = load ptr, ptr %6, align 8, !tbaa !39
  %50 = getelementptr inbounds nuw i8, ptr %49, i32 1
  store ptr %50, ptr %6, align 8, !tbaa !39
  store i8 %48, ptr %49, align 1, !tbaa !14
  %51 = load i32, ptr %8, align 4, !tbaa !41
  %52 = trunc i32 %51 to i8
  %53 = load ptr, ptr %6, align 8, !tbaa !39
  %54 = getelementptr inbounds nuw i8, ptr %53, i32 1
  store ptr %54, ptr %6, align 8, !tbaa !39
  store i8 %52, ptr %53, align 1, !tbaa !14
  ret void
}

; Function Attrs: mustprogress nounwind uwtable
define linkonce_odr noundef i64 @_ZNK9grpc_core11SliceBuffer6LengthEv(ptr noundef nonnull align 8 dereferenceable(232) %0) #6 comdat align 2 {
  %2 = alloca ptr, align 8
  store ptr %0, ptr %2, align 8, !tbaa !10
  %3 = load ptr, ptr %2, align 8
  %4 = getelementptr inbounds nuw %"class.grpc_core::SliceBuffer", ptr %3, i32 0, i32 0
  %5 = getelementptr inbounds nuw %struct.grpc_slice_buffer, ptr %4, i32 0, i32 4
  %6 = load i64, ptr %5, align 8, !tbaa !35
  ret i64 %6
}

; Function Attrs: mustprogress uwtable
define void @_ZN9grpc_core15HPackCompressor5FrameERKNS0_19EncodeHeaderOptionsERNS_11SliceBufferEP17grpc_slice_buffer(ptr noundef nonnull align 8 dereferenceable(344) %0, ptr noundef nonnull align 8 dereferenceable(24) %1, ptr noundef nonnull align 8 dereferenceable(232) %2, ptr noundef %3) #4 align 2 {
  %5 = alloca ptr, align 8
  %6 = alloca ptr, align 8
  %7 = alloca ptr, align 8
  %8 = alloca ptr, align 8
  %9 = alloca i8, align 1
  %10 = alloca i8, align 1
  %11 = alloca %"struct.grpc_core::CallTracerInterface::TransportByteSize", align 8
  %12 = alloca i64, align 8
  %13 = alloca %"struct.grpc_core::CallTracerInterface::TransportByteSize", align 8
  store ptr %0, ptr %5, align 8, !tbaa !3
  store ptr %1, ptr %6, align 8, !tbaa !8
  store ptr %2, ptr %7, align 8, !tbaa !10
  store ptr %3, ptr %8, align 8, !tbaa !12
  call void @llvm.lifetime.start.p0(i64 1, ptr %9) #3
  store i8 1, ptr %9, align 1, !tbaa !14
  call void @llvm.lifetime.start.p0(i64 1, ptr %10) #3
  store i8 0, ptr %10, align 1, !tbaa !14
  %14 = load ptr, ptr %6, align 8, !tbaa !8
  %15 = getelementptr inbounds nuw %"struct.grpc_core::HPackCompressor::EncodeHeaderOptions", ptr %14, i32 0, i32 1
  %16 = load i8, ptr %15, align 4, !tbaa !15, !range !21, !noundef !22
  %17 = trunc i8 %16 to i1
  br i1 %17, label %18, label %23

18:                                               ; preds = %4
  %19 = load i8, ptr %10, align 1, !tbaa !14
  %20 = zext i8 %19 to i32
  %21 = or i32 %20, 1
  %22 = trunc i32 %21 to i8
  store i8 %22, ptr %10, align 1, !tbaa !14
  br label %23

23:                                               ; preds = %18, %4
  %24 = load ptr, ptr %6, align 8, !tbaa !8
  %25 = getelementptr inbounds nuw %"struct.grpc_core::HPackCompressor::EncodeHeaderOptions", ptr %24, i32 0, i32 4
  %26 = load ptr, ptr %25, align 8, !tbaa !23
  call void @llvm.lifetime.start.p0(i64 24, ptr %11) #3
  %27 = getelementptr inbounds nuw %"struct.grpc_core::CallTracerInterface::TransportByteSize", ptr %11, i32 0, i32 0
  store i64 0, ptr %27, align 8, !tbaa !24
  %28 = getelementptr inbounds nuw %"struct.grpc_core::CallTracerInterface::TransportByteSize", ptr %11, i32 0, i32 1
  store i64 0, ptr %28, align 8, !tbaa !26
  %29 = getelementptr inbounds nuw %"struct.grpc_core::CallTracerInterface::TransportByteSize", ptr %11, i32 0, i32 2
  %30 = load ptr, ptr %7, align 8, !tbaa !10
  %31 = call noundef i64 @_ZNK9grpc_core11SliceBuffer6LengthEv(ptr noundef nonnull align 8 dereferenceable(232) %30)
  store i64 %31, ptr %29, align 8, !tbaa !27
  %32 = load ptr, ptr %26, align 8, !tbaa !28
  %33 = getelementptr inbounds ptr, ptr %32, i64 17
  %34 = load ptr, ptr %33, align 8
  call void %34(ptr noundef nonnull align 8 dereferenceable(8) %26, ptr noundef nonnull align 8 dereferenceable(24) %11)
  call void @llvm.lifetime.end.p0(i64 24, ptr %11) #3
  br label %35

35:                                               ; preds = %62, %23
  %36 = load i8, ptr %9, align 1, !tbaa !14
  %37 = zext i8 %36 to i32
  %38 = icmp eq i32 %37, 1
  br i1 %38, label %43, label %39

39:                                               ; preds = %35
  %40 = load ptr, ptr %7, align 8, !tbaa !10
  %41 = call noundef i64 @_ZNK9grpc_core11SliceBuffer6LengthEv(ptr noundef nonnull align 8 dereferenceable(232) %40)
  %42 = icmp ugt i64 %41, 0
  br label %43

43:                                               ; preds = %39, %35
  %44 = phi i1 [ true, %35 ], [ %42, %39 ]
  br i1 %44, label %45, label %84

45:                                               ; preds = %43
  call void @llvm.lifetime.start.p0(i64 8, ptr %12) #3
  %46 = load ptr, ptr %7, align 8, !tbaa !10
  %47 = call noundef i64 @_ZNK9grpc_core11SliceBuffer6LengthEv(ptr noundef nonnull align 8 dereferenceable(232) %46)
  store i64 %47, ptr %12, align 8, !tbaa !30
  %48 = load i64, ptr %12, align 8, !tbaa !30
  %49 = load ptr, ptr %6, align 8, !tbaa !8
  %50 = getelementptr inbounds nuw %"struct.grpc_core::HPackCompressor::EncodeHeaderOptions", ptr %49, i32 0, i32 3
  %51 = load i64, ptr %50, align 8, !tbaa !31
  %52 = icmp ule i64 %48, %51
  br i1 %52, label %53, label %58

53:                                               ; preds = %45
  %54 = load i8, ptr %10, align 1, !tbaa !14
  %55 = zext i8 %54 to i32
  %56 = or i32 %55, 4
  %57 = trunc i32 %56 to i8
  store i8 %57, ptr %10, align 1, !tbaa !14
  br label %62

58:                                               ; preds = %45
  %59 = load ptr, ptr %6, align 8, !tbaa !8
  %60 = getelementptr inbounds nuw %"struct.grpc_core::HPackCompressor::EncodeHeaderOptions", ptr %59, i32 0, i32 3
  %61 = load i64, ptr %60, align 8, !tbaa !31
  store i64 %61, ptr %12, align 8, !tbaa !30
  br label %62

62:                                               ; preds = %58, %53
  %63 = load ptr, ptr %8, align 8, !tbaa !12
  %64 = call ptr @grpc_slice_buffer_tiny_add(ptr noundef %63, i64 noundef 9)
  %65 = load i8, ptr %9, align 1, !tbaa !14
  %66 = load ptr, ptr %6, align 8, !tbaa !8
  %67 = getelementptr inbounds nuw %"struct.grpc_core::HPackCompressor::EncodeHeaderOptions", ptr %66, i32 0, i32 0
  %68 = load i32, ptr %67, align 8, !tbaa !32
  %69 = load i64, ptr %12, align 8, !tbaa !30
  %70 = load i8, ptr %10, align 1, !tbaa !14
  call void @_ZN9grpc_coreL10FillHeaderEPhhjmh(ptr noundef %64, i8 noundef zeroext %65, i32 noundef %68, i64 noundef %69, i8 noundef zeroext %70)
  %71 = load ptr, ptr %6, align 8, !tbaa !8
  %72 = getelementptr inbounds nuw %"struct.grpc_core::HPackCompressor::EncodeHeaderOptions", ptr %71, i32 0, i32 4
  %73 = load ptr, ptr %72, align 8, !tbaa !23
  call void @llvm.lifetime.start.p0(i64 24, ptr %13) #3
  %74 = getelementptr inbounds nuw %"struct.grpc_core::CallTracerInterface::TransportByteSize", ptr %13, i32 0, i32 0
  store i64 9, ptr %74, align 8, !tbaa !24
  %75 = getelementptr inbounds nuw %"struct.grpc_core::CallTracerInterface::TransportByteSize", ptr %13, i32 0, i32 1
  store i64 0, ptr %75, align 8, !tbaa !26
  %76 = getelementptr inbounds nuw %"struct.grpc_core::CallTracerInterface::TransportByteSize", ptr %13, i32 0, i32 2
  store i64 0, ptr %76, align 8, !tbaa !27
  %77 = load ptr, ptr %73, align 8, !tbaa !28
  %78 = getelementptr inbounds ptr, ptr %77, i64 17
  %79 = load ptr, ptr %78, align 8
  call void %79(ptr noundef nonnull align 8 dereferenceable(8) %73, ptr noundef nonnull align 8 dereferenceable(24) %13)
  call void @llvm.lifetime.end.p0(i64 24, ptr %13) #3
  %80 = load ptr, ptr %7, align 8, !tbaa !10
  %81 = call noundef ptr @_ZN9grpc_core11SliceBuffer14c_slice_bufferEv(ptr noundef nonnull align 8 dereferenceable(232) %80)
  %82 = load i64, ptr %12, align 8, !tbaa !30
  %83 = load ptr, ptr %8, align 8, !tbaa !12
  call void @grpc_slice_buffer_move_first(ptr noundef %81, i64 noundef %82, ptr noundef %83)
  store i8 9, ptr %9, align 1, !tbaa !14
  store i8 0, ptr %10, align 1, !tbaa !14
  call void @llvm.lifetime.end.p0(i64 8, ptr %12) #3
  br label %35, !llvm.loop !33

84:                                               ; preds = %43
  call void @llvm.lifetime.end.p0(i64 1, ptr %10) #3
  call void @llvm.lifetime.end.p0(i64 1, ptr %9) #3
  ret void
}