; Function Attrs: mustprogress uwtable
define void @_ZN9grpc_core15HPackCompressor5FrameERKNS0_19EncodeHeaderOptionsERNS_11SliceBufferEP17grpc_slice_buffer(ptr noundef nonnull readnone align 8 captures(none) dereferenceable(344) %0, ptr noundef nonnull readonly align 8 captures(none) dereferenceable(24) %1, ptr noundef nonnull align 8 dereferenceable(232) %2, ptr noundef %3) local_unnamed_addr #3 align 2 {
  %5 = alloca %"struct.grpc_core::CallTracerInterface::TransportByteSize", align 8
  %6 = alloca %"struct.grpc_core::CallTracerInterface::TransportByteSize", align 8
  %7 = getelementptr inbounds nuw i8, ptr %1, i64 4
  %8 = load i8, ptr %7, align 4, !tbaa !3, !range !12, !noundef !13
  %9 = getelementptr inbounds nuw i8, ptr %1, i64 16
  %10 = load ptr, ptr %9, align 8, !tbaa !14
  call void @llvm.lifetime.start.p0(i64 24, ptr nonnull %5) #27
  %11 = getelementptr inbounds nuw i8, ptr %5, i64 16
  %12 = getelementptr inbounds nuw i8, ptr %2, i64 32
  call void @llvm.memset.p0.i64(ptr noundef nonnull align 8 dereferenceable(16) %5, i8 0, i64 16, i1 false)
  %13 = load i64, ptr %12, align 8, !tbaa !15
  store i64 %13, ptr %11, align 8, !tbaa !19
  %14 = load ptr, ptr %10, align 8, !tbaa !21
  %15 = getelementptr inbounds nuw i8, ptr %14, i64 136
  %16 = load ptr, ptr %15, align 8
  call void %16(ptr noundef nonnull align 8 dereferenceable(8) %10, ptr noundef nonnull align 8 dereferenceable(24) %5)
  call void @llvm.lifetime.end.p0(i64 24, ptr nonnull %5) #27
  %17 = getelementptr inbounds nuw i8, ptr %1, i64 8
  %18 = getelementptr inbounds nuw i8, ptr %6, i64 8
  %.pre = load i64, ptr %12, align 8, !tbaa !15
  br label %.critedge

.critedge:                                        ; preds = %4, %.critedge
  %19 = phi i64 [ %.pre, %4 ], [ %48, %.critedge ]
  %.127 = phi i8 [ %8, %4 ], [ 0, %.critedge ]
  %.02026 = phi i8 [ 1, %4 ], [ 9, %.critedge ]
  %20 = load i64, ptr %17, align 8, !tbaa !23
  %.not23 = icmp ugt i64 %19, %20
  %21 = or disjoint i8 %.127, 4
  %.2 = select i1 %.not23, i8 %.127, i8 %21
  %.0 = call i64 @llvm.umin.i64(i64 %19, i64 %20)
  %22 = call ptr @grpc_slice_buffer_tiny_add(ptr noundef %3, i64 noundef 9)
  %23 = load i32, ptr %1, align 8, !tbaa !24
  %24 = lshr i64 %.0, 16
  %25 = trunc i64 %24 to i8
  %26 = getelementptr inbounds nuw i8, ptr %22, i64 1
  store i8 %25, ptr %22, align 1, !tbaa !25
  %27 = lshr i64 %.0, 8
  %28 = trunc i64 %27 to i8
  %29 = getelementptr inbounds nuw i8, ptr %22, i64 2
  store i8 %28, ptr %26, align 1, !tbaa !25
  %30 = trunc i64 %.0 to i8
  %31 = getelementptr inbounds nuw i8, ptr %22, i64 3
  store i8 %30, ptr %29, align 1, !tbaa !25
  %32 = getelementptr inbounds nuw i8, ptr %22, i64 4
  store i8 %.02026, ptr %31, align 1, !tbaa !25
  %33 = getelementptr inbounds nuw i8, ptr %22, i64 5
  store i8 %.2, ptr %32, align 1, !tbaa !25
  %34 = lshr i32 %23, 24
  %35 = trunc nuw i32 %34 to i8
  %36 = getelementptr inbounds nuw i8, ptr %22, i64 6
  store i8 %35, ptr %33, align 1, !tbaa !25
  %37 = lshr i32 %23, 16
  %38 = trunc i32 %37 to i8
  %39 = getelementptr inbounds nuw i8, ptr %22, i64 7
  store i8 %38, ptr %36, align 1, !tbaa !25
  %40 = lshr i32 %23, 8
  %41 = trunc i32 %40 to i8
  %42 = getelementptr inbounds nuw i8, ptr %22, i64 8
  store i8 %41, ptr %39, align 1, !tbaa !25
  %43 = trunc i32 %23 to i8
  store i8 %43, ptr %42, align 1, !tbaa !25
  %44 = load ptr, ptr %9, align 8, !tbaa !14
  call void @llvm.lifetime.start.p0(i64 24, ptr nonnull %6) #27
  store i64 9, ptr %6, align 8, !tbaa !26
  call void @llvm.memset.p0.i64(ptr noundef nonnull align 8 dereferenceable(16) %18, i8 0, i64 16, i1 false)
  %45 = load ptr, ptr %44, align 8, !tbaa !21
  %46 = getelementptr inbounds nuw i8, ptr %45, i64 136
  %47 = load ptr, ptr %46, align 8
  call void %47(ptr noundef nonnull align 8 dereferenceable(8) %44, ptr noundef nonnull align 8 dereferenceable(24) %6)
  call void @llvm.lifetime.end.p0(i64 24, ptr nonnull %6) #27
  call void @grpc_slice_buffer_move_first(ptr noundef nonnull %2, i64 noundef %.0, ptr noundef %3)
  %48 = load i64, ptr %12, align 8
  %.not = icmp eq i64 %48, 0
  br i1 %.not, label %49, label %.critedge, !llvm.loop !27

49:                                               ; preds = %.critedge
  ret void
}